; Function Attrs: inlinehint mustprogress uwtable
define internal void @"_ZZNSt9once_flag18_Prepare_executionC1IZSt9call_onceIZNK10duckdb_re23RE219CapturingGroupNamesB5cxx11EvE3$_0JPKS4_EEvRS_OT_DpOT0_EUlvE_EERS9_ENUlvE_8__invokeEv"() #25 align 2 {
  %1 = tail call align 8 ptr @llvm.threadlocal.address.p0(ptr align 8 @_ZSt15__once_callable)
  %2 = load ptr, ptr %1, align 8, !tbaa !33
  %3 = getelementptr i8, ptr %2, i64 8
  %.val.i = load ptr, ptr %3, align 8, !tbaa !227
  %.val.val.i = load ptr, ptr %.val.i, align 8, !tbaa !89
  %4 = getelementptr inbounds nuw i8, ptr %.val.val.i, i64 40
  %5 = load ptr, ptr %4, align 8, !tbaa !73
  %.not.i.i.i.i.i = icmp eq ptr %5, null
  br i1 %.not.i.i.i.i.i, label %._crit_edge.i.i.i.i.i, label %6

._crit_edge.i.i.i.i.i:                            ; preds = %0
  %.phi.trans.insert.i.i.i.i.i = getelementptr inbounds nuw i8, ptr %.val.val.i, i64 128
  %.pre.i.i.i.i.i = load ptr, ptr %.phi.trans.insert.i.i.i.i.i, align 8, !tbaa !94
  br label %9

6:                                                ; preds = %0
  %7 = tail call noundef ptr @_ZN10duckdb_re26Regexp12CaptureNamesB5cxx11Ev(ptr noundef nonnull align 8 dereferenceable(40) %5)
  %8 = getelementptr inbounds nuw i8, ptr %.val.val.i, i64 128
  store ptr %7, ptr %8, align 8, !tbaa !94
  br label %9

9:                                                ; preds = %6, %._crit_edge.i.i.i.i.i
  %10 = phi ptr [ %.pre.i.i.i.i.i, %._crit_edge.i.i.i.i.i ], [ %7, %6 ]
  %11 = icmp eq ptr %10, null
  br i1 %11, label %12, label %"_ZZNSt9once_flag18_Prepare_executionC1IZSt9call_onceIZNK10duckdb_re23RE219CapturingGroupNamesB5cxx11EvE3$_0JPKS4_EEvRS_OT_DpOT0_EUlvE_EERS9_ENKUlvE_clEv.exit"

12:                                               ; preds = %9
  %13 = getelementptr inbounds nuw i8, ptr %.val.val.i, i64 128
  store ptr getelementptr inbounds nuw (i8, ptr @_ZN10duckdb_re2L13empty_storageE, i64 80), ptr %13, align 8, !tbaa !94
  br label %"_ZZNSt9once_flag18_Prepare_executionC1IZSt9call_onceIZNK10duckdb_re23RE219CapturingGroupNamesB5cxx11EvE3$_0JPKS4_EEvRS_OT_DpOT0_EUlvE_EERS9_ENKUlvE_clEv.exit"

"_ZZNSt9once_flag18_Prepare_executionC1IZSt9call_onceIZNK10duckdb_re23RE219CapturingGroupNamesB5cxx11EvE3$_0JPKS4_EEvRS_OT_DpOT0_EUlvE_EERS9_ENKUlvE_clEv.exit": ; preds = %9, %12
  ret void
}